; Function Attrs: nofree norecurse nosync nounwind memory(readwrite, inaccessiblemem: none) uwtable
define void @Saig_SynchInitRegsBinary(ptr noundef readonly captures(none) %0, ptr noundef readonly captures(none) %1, i32 noundef %2) local_unnamed_addr #2 {
  %4 = getelementptr i8, ptr %0, i64 104
  %.val1518 = load i32, ptr %4, align 8, !tbaa !26
  %5 = icmp sgt i32 %.val1518, 0
  br i1 %5, label %.lr.ph21, label %.critedge

.lr.ph21:                                         ; preds = %3
  %6 = getelementptr inbounds nuw i8, ptr %0, i64 16
  %7 = load ptr, ptr %6, align 8, !tbaa !27
  %8 = getelementptr i8, ptr %0, i64 108
  %9 = getelementptr i8, ptr %7, i64 8
  %.val14 = load ptr, ptr %9, align 8, !tbaa !3
  %10 = getelementptr i8, ptr %1, i64 8
  %.val = load ptr, ptr %10, align 8, !tbaa !3
  %11 = icmp sgt i32 %2, 0
  br i1 %11, label %.lr.ph.us.preheader, label %.critedge

.lr.ph.us.preheader:                              ; preds = %.lr.ph21
  %wide.trip.count = zext nneg i32 %2 to i64
  br label %.lr.ph.us

.lr.ph.us:                                        ; preds = %.lr.ph.us.preheader, %._crit_edge.us
  %.01319.us = phi i32 [ %27, %._crit_edge.us ], [ 0, %.lr.ph.us.preheader ]
  %.val16.us = load i32, ptr %8, align 4, !tbaa !28
  %12 = add nsw i32 %.val16.us, %.01319.us
  %13 = sext i32 %12 to i64
  %14 = getelementptr inbounds ptr, ptr %.val14, i64 %13
  %15 = load ptr, ptr %14, align 8, !tbaa !24
  %16 = getelementptr inbounds nuw i8, ptr %15, i64 36
  %17 = load i32, ptr %16, align 4, !tbaa !23
  %18 = sext i32 %17 to i64
  %19 = getelementptr inbounds ptr, ptr %.val, i64 %18
  %20 = load ptr, ptr %19, align 8, !tbaa !24
  %21 = getelementptr inbounds nuw i8, ptr %15, i64 24
  br label %22

22:                                               ; preds = %.lr.ph.us, %22
  %indvars.iv = phi i64 [ 0, %.lr.ph.us ], [ %indvars.iv.next, %22 ]
  %23 = load i64, ptr %21, align 8
  %24 = and i64 %23, 16
  %.not.i.us = icmp eq i64 %24, 0
  %25 = select i1 %.not.i.us, i32 0, i32 1431655765
  %26 = getelementptr inbounds nuw i32, ptr %20, i64 %indvars.iv
  store i32 %25, ptr %26, align 4, !tbaa !25
  %indvars.iv.next = add nuw nsw i64 %indvars.iv, 1
  %exitcond.not = icmp eq i64 %indvars.iv.next, %wide.trip.count
  br i1 %exitcond.not, label %._crit_edge.us, label %22, !llvm.loop !31

._crit_edge.us:                                   ; preds = %22
  %27 = add nuw nsw i32 %.01319.us, 1
  %.val15.us = load i32, ptr %4, align 8, !tbaa !26
  %28 = icmp slt i32 %27, %.val15.us
  br i1 %28, label %.lr.ph.us, label %.critedge, !llvm.loop !32

.critedge:                                        ; preds = %._crit_edge.us, %.lr.ph21, %3
  ret void
}